
PIPO_optimization.elf:     file format elf32-avr

Sections:
Idx Name          Size      VMA       LMA       File off  Algn
  0 .data         00000040  00800100  000008b0  00000924  2**0
                  CONTENTS, ALLOC, LOAD, DATA
  1 .RKSection    00000001  00800140  000008f0  00000964  2**0
                  CONTENTS, ALLOC, LOAD, DATA
  2 .text         000008b0  00000000  00000000  00000074  2**1
                  CONTENTS, ALLOC, LOAD, READONLY, CODE
  3 .comment      00000030  00000000  00000000  00000965  2**0
                  CONTENTS, READONLY
  4 .note.gnu.avr.deviceinfo 0000003c  00000000  00000000  00000998  2**2
                  CONTENTS, READONLY
  5 .debug_aranges 000000f0  00000000  00000000  000009d8  2**3
                  CONTENTS, READONLY, DEBUGGING
  6 .debug_info   00000d93  00000000  00000000  00000ac8  2**0
                  CONTENTS, READONLY, DEBUGGING
  7 .debug_abbrev 00000870  00000000  00000000  0000185b  2**0
                  CONTENTS, READONLY, DEBUGGING
  8 .debug_line   00000755  00000000  00000000  000020cb  2**0
                  CONTENTS, READONLY, DEBUGGING
  9 .debug_frame  00000078  00000000  00000000  00002820  2**2
                  CONTENTS, READONLY, DEBUGGING
 10 .debug_str    00000449  00000000  00000000  00002898  2**0
                  CONTENTS, READONLY, DEBUGGING
 11 .debug_loc    000000c2  00000000  00000000  00002ce1  2**0
                  CONTENTS, READONLY, DEBUGGING
 12 .debug_ranges 00000020  00000000  00000000  00002da3  2**0
                  CONTENTS, READONLY, DEBUGGING

Disassembly of section .text:

00000000 <__vectors>:
   0:	45 c0       	rjmp	.+138    	; 0x8c <__ctors_end>
   2:	00 00       	nop
   4:	58 c0       	rjmp	.+176    	; 0xb6 <__bad_interrupt>
   6:	00 00       	nop
   8:	56 c0       	rjmp	.+172    	; 0xb6 <__bad_interrupt>
   a:	00 00       	nop
   c:	54 c0       	rjmp	.+168    	; 0xb6 <__bad_interrupt>
   e:	00 00       	nop
  10:	52 c0       	rjmp	.+164    	; 0xb6 <__bad_interrupt>
  12:	00 00       	nop
  14:	50 c0       	rjmp	.+160    	; 0xb6 <__bad_interrupt>
  16:	00 00       	nop
  18:	4e c0       	rjmp	.+156    	; 0xb6 <__bad_interrupt>
  1a:	00 00       	nop
  1c:	4c c0       	rjmp	.+152    	; 0xb6 <__bad_interrupt>
  1e:	00 00       	nop
  20:	4a c0       	rjmp	.+148    	; 0xb6 <__bad_interrupt>
  22:	00 00       	nop
  24:	48 c0       	rjmp	.+144    	; 0xb6 <__bad_interrupt>
  26:	00 00       	nop
  28:	46 c0       	rjmp	.+140    	; 0xb6 <__bad_interrupt>
  2a:	00 00       	nop
  2c:	44 c0       	rjmp	.+136    	; 0xb6 <__bad_interrupt>
  2e:	00 00       	nop
  30:	42 c0       	rjmp	.+132    	; 0xb6 <__bad_interrupt>
  32:	00 00       	nop
  34:	40 c0       	rjmp	.+128    	; 0xb6 <__bad_interrupt>
  36:	00 00       	nop
  38:	3e c0       	rjmp	.+124    	; 0xb6 <__bad_interrupt>
  3a:	00 00       	nop
  3c:	3c c0       	rjmp	.+120    	; 0xb6 <__bad_interrupt>
  3e:	00 00       	nop
  40:	3a c0       	rjmp	.+116    	; 0xb6 <__bad_interrupt>
  42:	00 00       	nop
  44:	38 c0       	rjmp	.+112    	; 0xb6 <__bad_interrupt>
  46:	00 00       	nop
  48:	36 c0       	rjmp	.+108    	; 0xb6 <__bad_interrupt>
  4a:	00 00       	nop
  4c:	34 c0       	rjmp	.+104    	; 0xb6 <__bad_interrupt>
  4e:	00 00       	nop
  50:	32 c0       	rjmp	.+100    	; 0xb6 <__bad_interrupt>
  52:	00 00       	nop
  54:	30 c0       	rjmp	.+96     	; 0xb6 <__bad_interrupt>
  56:	00 00       	nop
  58:	2e c0       	rjmp	.+92     	; 0xb6 <__bad_interrupt>
  5a:	00 00       	nop
  5c:	2c c0       	rjmp	.+88     	; 0xb6 <__bad_interrupt>
  5e:	00 00       	nop
  60:	2a c0       	rjmp	.+84     	; 0xb6 <__bad_interrupt>
  62:	00 00       	nop
  64:	28 c0       	rjmp	.+80     	; 0xb6 <__bad_interrupt>
  66:	00 00       	nop
  68:	26 c0       	rjmp	.+76     	; 0xb6 <__bad_interrupt>
  6a:	00 00       	nop
  6c:	24 c0       	rjmp	.+72     	; 0xb6 <__bad_interrupt>
  6e:	00 00       	nop
  70:	22 c0       	rjmp	.+68     	; 0xb6 <__bad_interrupt>
  72:	00 00       	nop
  74:	20 c0       	rjmp	.+64     	; 0xb6 <__bad_interrupt>
  76:	00 00       	nop
  78:	1e c0       	rjmp	.+60     	; 0xb6 <__bad_interrupt>
  7a:	00 00       	nop
  7c:	1c c0       	rjmp	.+56     	; 0xb6 <__bad_interrupt>
  7e:	00 00       	nop
  80:	1a c0       	rjmp	.+52     	; 0xb6 <__bad_interrupt>
  82:	00 00       	nop
  84:	18 c0       	rjmp	.+48     	; 0xb6 <__bad_interrupt>
  86:	00 00       	nop
  88:	16 c0       	rjmp	.+44     	; 0xb6 <__bad_interrupt>
	...

0000008c <__ctors_end>:
  8c:	11 24       	eor	r1, r1
  8e:	1f be       	out	0x3f, r1	; 63
  90:	cf ef       	ldi	r28, 0xFF	; 255
  92:	d0 e1       	ldi	r29, 0x10	; 16
  94:	de bf       	out	0x3e, r29	; 62
  96:	cd bf       	out	0x3d, r28	; 61

00000098 <__do_copy_data>:
  98:	11 e0       	ldi	r17, 0x01	; 1
  9a:	a0 e0       	ldi	r26, 0x00	; 0
  9c:	b1 e0       	ldi	r27, 0x01	; 1
  9e:	e0 eb       	ldi	r30, 0xB0	; 176
  a0:	f8 e0       	ldi	r31, 0x08	; 8
  a2:	00 e0       	ldi	r16, 0x00	; 0
  a4:	0b bf       	out	0x3b, r16	; 59
  a6:	02 c0       	rjmp	.+4      	; 0xac <__do_copy_data+0x14>
  a8:	07 90       	elpm	r0, Z+
  aa:	0d 92       	st	X+, r0
  ac:	a0 34       	cpi	r26, 0x40	; 64
  ae:	b1 07       	cpc	r27, r17
  b0:	d9 f7       	brne	.-10     	; 0xa8 <__do_copy_data+0x10>
  b2:	f7 d3       	rcall	.+2030   	; 0x8a2 <main>
  b4:	fb c3       	rjmp	.+2038   	; 0x8ac <_exit>

000000b6 <__bad_interrupt>:
  b6:	a4 cf       	rjmp	.-184    	; 0x0 <__vectors>

000000b8 <pipo128_decrypt>:
		MOV CT1, TM3
	.endm

	pipo128_decrypt:

	PUSH R15
  b8:	ff 92       	push	r15
	PUSH R16
  ba:	0f 93       	push	r16
	PUSH R17
  bc:	1f 93       	push	r17
	PUSH R28
  be:	cf 93       	push	r28
	PUSH R29
  c0:	df 93       	push	r29

	MOVW R28, R24  //pt Ypointer
  c2:	ec 01       	movw	r28, r24
	MOVW R26, R22 //ct Xpointer
  c4:	db 01       	movw	r26, r22
	MOVW R30, R20 //rk Zpointer
  c6:	fa 01       	movw	r30, r20

	LD CT0, X+
  c8:	2d 91       	ld	r18, X+
	LD CT1, X+
  ca:	3d 91       	ld	r19, X+
	LD CT2, X+
  cc:	4d 91       	ld	r20, X+
	LD CT3, X+
  ce:	5d 91       	ld	r21, X+
	LD CT4, X+
  d0:	6d 91       	ld	r22, X+
	LD CT5, X+
  d2:	7d 91       	ld	r23, X+
	LD CT6, X+
  d4:	8d 91       	ld	r24, X+
	LD CT7, X+
  d6:	9d 91       	ld	r25, X+

	PUSH R26
  d8:	af 93       	push	r26
	PUSH R27
  da:	bf 93       	push	r27
	SUBI R30, -104
  dc:	e8 59       	subi	r30, 0x98	; 152
	LDI CNT, 13
  de:	1d e0       	ldi	r17, 0x0D	; 13

000000e0 <LOOP>:
	LOOP:
		KEYADD
  e0:	01 90       	ld	r0, Z+
  e2:	20 25       	eor	r18, r0
  e4:	01 90       	ld	r0, Z+
  e6:	30 25       	eor	r19, r0
  e8:	01 90       	ld	r0, Z+
  ea:	40 25       	eor	r20, r0
  ec:	01 90       	ld	r0, Z+
  ee:	50 25       	eor	r21, r0
  f0:	01 90       	ld	r0, Z+
  f2:	60 25       	eor	r22, r0
  f4:	01 90       	ld	r0, Z+
  f6:	70 25       	eor	r23, r0
  f8:	01 90       	ld	r0, Z+
  fa:	80 25       	eor	r24, r0
  fc:	01 90       	ld	r0, Z+
  fe:	90 25       	eor	r25, r0
		INV_PBox
 100:	88 94       	clc
 102:	33 1f       	adc	r19, r19
 104:	31 1d       	adc	r19, r1
 106:	88 94       	clc
 108:	44 1f       	adc	r20, r20
 10a:	41 1d       	adc	r20, r1
 10c:	44 1f       	adc	r20, r20
 10e:	41 1d       	adc	r20, r1
 110:	44 1f       	adc	r20, r20
 112:	41 1d       	adc	r20, r1
 114:	44 1f       	adc	r20, r20
 116:	41 1d       	adc	r20, r1
 118:	88 94       	clc
 11a:	50 fb       	bst	r21, 0
 11c:	57 95       	ror	r21
 11e:	57 f9       	bld	r21, 7
 120:	50 fb       	bst	r21, 0
 122:	57 95       	ror	r21
 124:	57 f9       	bld	r21, 7
 126:	50 fb       	bst	r21, 0
 128:	57 95       	ror	r21
 12a:	57 f9       	bld	r21, 7
 12c:	88 94       	clc
 12e:	66 1f       	adc	r22, r22
 130:	61 1d       	adc	r22, r1
 132:	66 1f       	adc	r22, r22
 134:	61 1d       	adc	r22, r1
 136:	88 94       	clc
 138:	77 1f       	adc	r23, r23
 13a:	71 1d       	adc	r23, r1
 13c:	77 1f       	adc	r23, r23
 13e:	71 1d       	adc	r23, r1
 140:	77 1f       	adc	r23, r23
 142:	71 1d       	adc	r23, r1
 144:	88 94       	clc
 146:	80 fb       	bst	r24, 0
 148:	87 95       	ror	r24
 14a:	87 f9       	bld	r24, 7
 14c:	88 94       	clc
 14e:	90 fb       	bst	r25, 0
 150:	97 95       	ror	r25
 152:	97 f9       	bld	r25, 7
 154:	90 fb       	bst	r25, 0
 156:	97 95       	ror	r25
 158:	97 f9       	bld	r25, 7
		INV_SBox
 15a:	f9 2e       	mov	r15, r25
 15c:	92 2f       	mov	r25, r18
 15e:	23 2f       	mov	r18, r19
 160:	3f 2d       	mov	r19, r15
 162:	f9 2e       	mov	r15, r25
 164:	08 2f       	mov	r16, r24
 166:	a7 2f       	mov	r26, r23
 168:	b5 2f       	mov	r27, r21
 16a:	5a 2b       	or	r21, r26
 16c:	65 27       	eor	r22, r21
 16e:	5b 2f       	mov	r21, r27
 170:	ba 2f       	mov	r27, r26
 172:	a0 2b       	or	r26, r16
 174:	5a 27       	eor	r21, r26
 176:	ab 2f       	mov	r26, r27
 178:	06 27       	eor	r16, r22
 17a:	f5 26       	eor	r15, r21
 17c:	b0 2f       	mov	r27, r16
 17e:	0f 21       	and	r16, r15
 180:	a0 27       	eor	r26, r16
 182:	0b 2f       	mov	r16, r27
 184:	b6 2f       	mov	r27, r22
 186:	69 23       	and	r22, r25
 188:	56 27       	eor	r21, r22
 18a:	6b 2f       	mov	r22, r27
 18c:	20 27       	eor	r18, r16
 18e:	3a 27       	eor	r19, r26
 190:	4f 25       	eor	r20, r15
 192:	f5 2e       	mov	r15, r21
 194:	58 2f       	mov	r21, r24
 196:	8f 2d       	mov	r24, r15
 198:	f7 2e       	mov	r15, r23
 19a:	76 2f       	mov	r23, r22
 19c:	6f 2d       	mov	r22, r15
 19e:	93 27       	eor	r25, r19
 1a0:	54 27       	eor	r21, r20
 1a2:	62 27       	eor	r22, r18
 1a4:	b7 2f       	mov	r27, r23
 1a6:	78 23       	and	r23, r24
 1a8:	67 27       	eor	r22, r23
 1aa:	7b 2f       	mov	r23, r27
 1ac:	79 27       	eor	r23, r25
 1ae:	b6 2f       	mov	r27, r22
 1b0:	67 2b       	or	r22, r23
 1b2:	56 27       	eor	r21, r22
 1b4:	6b 2f       	mov	r22, r27
 1b6:	85 27       	eor	r24, r21
 1b8:	96 27       	eor	r25, r22
 1ba:	b5 2f       	mov	r27, r21
 1bc:	57 23       	and	r21, r23
 1be:	65 27       	eor	r22, r21
 1c0:	5b 2f       	mov	r21, r27
 1c2:	b9 2f       	mov	r27, r25
 1c4:	98 23       	and	r25, r24
 1c6:	79 27       	eor	r23, r25
 1c8:	9b 2f       	mov	r25, r27
 1ca:	40 95       	com	r20
 1cc:	b4 2f       	mov	r27, r20
 1ce:	42 2b       	or	r20, r18
 1d0:	34 27       	eor	r19, r20
 1d2:	4b 2f       	mov	r20, r27
 1d4:	b4 2f       	mov	r27, r20
 1d6:	43 2b       	or	r20, r19
 1d8:	24 27       	eor	r18, r20
 1da:	4b 2f       	mov	r20, r27
 1dc:	b3 2f       	mov	r27, r19
 1de:	32 23       	and	r19, r18
 1e0:	43 27       	eor	r20, r19
 1e2:	3b 2f       	mov	r19, r27
		DEC CNT
 1e4:	1a 95       	dec	r17
		CPI CNT, 0
 1e6:	10 30       	cpi	r17, 0x00	; 0
		SUBI R30, 16
 1e8:	e0 51       	subi	r30, 0x10	; 16
		BREQ LOOP_OUT
 1ea:	09 f0       	breq	.+2      	; 0x1ee <LOOP_OUT>
		RJMP LOOP
 1ec:	79 cf       	rjmp	.-270    	; 0xe0 <LOOP>

000001ee <LOOP_OUT>:

	LOOP_OUT:
	KEYADD
 1ee:	01 90       	ld	r0, Z+
 1f0:	20 25       	eor	r18, r0
 1f2:	01 90       	ld	r0, Z+
 1f4:	30 25       	eor	r19, r0
 1f6:	01 90       	ld	r0, Z+
 1f8:	40 25       	eor	r20, r0
 1fa:	01 90       	ld	r0, Z+
 1fc:	50 25       	eor	r21, r0
 1fe:	01 90       	ld	r0, Z+
 200:	60 25       	eor	r22, r0
 202:	01 90       	ld	r0, Z+
 204:	70 25       	eor	r23, r0
 206:	01 90       	ld	r0, Z+
 208:	80 25       	eor	r24, r0
 20a:	01 90       	ld	r0, Z+
 20c:	90 25       	eor	r25, r0

	POP R27
 20e:	bf 91       	pop	r27
	POP R26
 210:	af 91       	pop	r26

	ST Y+, CT0
 212:	29 93       	st	Y+, r18
	ST Y+, CT1
 214:	39 93       	st	Y+, r19
	ST Y+, CT2
 216:	49 93       	st	Y+, r20
	ST Y+, CT3
 218:	59 93       	st	Y+, r21
	ST Y+, CT4
 21a:	69 93       	st	Y+, r22
	ST Y+, CT5
 21c:	79 93       	st	Y+, r23
	ST Y+, CT6
 21e:	89 93       	st	Y+, r24
	ST Y+, CT7
 220:	99 93       	st	Y+, r25

	POP R29
 222:	df 91       	pop	r29
	POP R28
 224:	cf 91       	pop	r28
	POP R17
 226:	1f 91       	pop	r17
	POP R16
 228:	0f 91       	pop	r16
	POP R15
 22a:	ff 90       	pop	r15

	RET
 22c:	08 95       	ret

0000022e <pipo128_encrypt>:
		MOV PT5, TM2 //X[5] =T[2]
	.endm

	pipo128_encrypt:

	PUSH R15
 22e:	ff 92       	push	r15
	PUSH R16
 230:	0f 93       	push	r16
	PUSH R17
 232:	1f 93       	push	r17
	PUSH R28
 234:	cf 93       	push	r28
	PUSH R29
 236:	df 93       	push	r29

	MOVW R28, R24  //ct Ypointer
 238:	ec 01       	movw	r28, r24
	MOVW R26, R22 //pt Xpointer
 23a:	db 01       	movw	r26, r22
	MOVW R30, R20 //rk Zpointer
 23c:	fa 01       	movw	r30, r20

	LD PT0, X+
 23e:	2d 91       	ld	r18, X+
	LD PT1, X+
 240:	3d 91       	ld	r19, X+
	LD PT2, X+
 242:	4d 91       	ld	r20, X+
	LD PT3, X+
 244:	5d 91       	ld	r21, X+
	LD PT4, X+
 246:	6d 91       	ld	r22, X+
	LD PT5, X+
 248:	7d 91       	ld	r23, X+
	LD PT6, X+
 24a:	8d 91       	ld	r24, X+
	LD PT7, X+
 24c:	9d 91       	ld	r25, X+

	PUSH R26
 24e:	af 93       	push	r26
	PUSH R27
 250:	bf 93       	push	r27

	LDI CNT, 0
 252:	10 e0       	ldi	r17, 0x00	; 0
	KEYADD
 254:	01 90       	ld	r0, Z+
 256:	20 25       	eor	r18, r0
 258:	01 90       	ld	r0, Z+
 25a:	30 25       	eor	r19, r0
 25c:	01 90       	ld	r0, Z+
 25e:	40 25       	eor	r20, r0
 260:	01 90       	ld	r0, Z+
 262:	50 25       	eor	r21, r0
 264:	01 90       	ld	r0, Z+
 266:	60 25       	eor	r22, r0
 268:	01 90       	ld	r0, Z+
 26a:	70 25       	eor	r23, r0
 26c:	01 90       	ld	r0, Z+
 26e:	80 25       	eor	r24, r0
 270:	01 90       	ld	r0, Z+
 272:	90 25       	eor	r25, r0

00000274 <LOOP>:

	LOOP:
		Sbox
 274:	f9 2e       	mov	r15, r25
 276:	98 23       	and	r25, r24
 278:	79 27       	eor	r23, r25
 27a:	9f 2d       	mov	r25, r15
 27c:	f5 2e       	mov	r15, r21
 27e:	57 23       	and	r21, r23
 280:	65 27       	eor	r22, r21
 282:	5f 2d       	mov	r21, r15
 284:	96 27       	eor	r25, r22
 286:	85 27       	eor	r24, r21
 288:	f6 2e       	mov	r15, r22
 28a:	67 2b       	or	r22, r23
 28c:	56 27       	eor	r21, r22
 28e:	6f 2d       	mov	r22, r15
 290:	79 27       	eor	r23, r25
 292:	f7 2e       	mov	r15, r23
 294:	78 23       	and	r23, r24
 296:	67 27       	eor	r22, r23
 298:	7f 2d       	mov	r23, r15
 29a:	f3 2e       	mov	r15, r19
 29c:	32 23       	and	r19, r18
 29e:	43 27       	eor	r20, r19
 2a0:	3f 2d       	mov	r19, r15
 2a2:	f4 2e       	mov	r15, r20
 2a4:	43 2b       	or	r20, r19
 2a6:	24 27       	eor	r18, r20
 2a8:	4f 2d       	mov	r20, r15
 2aa:	f4 2e       	mov	r15, r20
 2ac:	42 2b       	or	r20, r18
 2ae:	34 27       	eor	r19, r20
 2b0:	4f 2d       	mov	r20, r15
 2b2:	40 95       	com	r20
 2b4:	93 27       	eor	r25, r19
 2b6:	54 27       	eor	r21, r20
 2b8:	62 27       	eor	r22, r18
 2ba:	f9 2e       	mov	r15, r25
 2bc:	05 2f       	mov	r16, r21
 2be:	a6 2f       	mov	r26, r22
 2c0:	bf 2d       	mov	r27, r15
 2c2:	f7 22       	and	r15, r23
 2c4:	8f 25       	eor	r24, r15
 2c6:	fb 2e       	mov	r15, r27
 2c8:	f8 26       	eor	r15, r24
 2ca:	ba 2f       	mov	r27, r26
 2cc:	a0 2b       	or	r26, r16
 2ce:	8a 27       	eor	r24, r26
 2d0:	ab 2f       	mov	r26, r27
 2d2:	07 27       	eor	r16, r23
 2d4:	b8 2f       	mov	r27, r24
 2d6:	8a 2b       	or	r24, r26
 2d8:	78 27       	eor	r23, r24
 2da:	8b 2f       	mov	r24, r27
 2dc:	b0 2f       	mov	r27, r16
 2de:	0f 21       	and	r16, r15
 2e0:	a0 27       	eor	r26, r16
 2e2:	0b 2f       	mov	r16, r27
 2e4:	4f 25       	eor	r20, r15
 2e6:	3a 27       	eor	r19, r26
 2e8:	f3 2e       	mov	r15, r19
 2ea:	20 27       	eor	r18, r16
 2ec:	32 2f       	mov	r19, r18
 2ee:	29 2f       	mov	r18, r25
 2f0:	9f 2d       	mov	r25, r15
 2f2:	05 2f       	mov	r16, r21
 2f4:	58 2f       	mov	r21, r24
 2f6:	80 2f       	mov	r24, r16
 2f8:	a6 2f       	mov	r26, r22
 2fa:	67 2f       	mov	r22, r23
 2fc:	7a 2f       	mov	r23, r26
		Pbox
 2fe:	30 fb       	bst	r19, 0
 300:	37 95       	ror	r19
 302:	37 f9       	bld	r19, 7
 304:	88 94       	clc
 306:	44 1f       	adc	r20, r20
 308:	41 1d       	adc	r20, r1
 30a:	44 1f       	adc	r20, r20
 30c:	41 1d       	adc	r20, r1
 30e:	44 1f       	adc	r20, r20
 310:	41 1d       	adc	r20, r1
 312:	44 1f       	adc	r20, r20
 314:	41 1d       	adc	r20, r1
 316:	88 94       	clc
 318:	55 1f       	adc	r21, r21
 31a:	51 1d       	adc	r21, r1
 31c:	55 1f       	adc	r21, r21
 31e:	51 1d       	adc	r21, r1
 320:	55 1f       	adc	r21, r21
 322:	51 1d       	adc	r21, r1
 324:	60 fb       	bst	r22, 0
 326:	67 95       	ror	r22
 328:	67 f9       	bld	r22, 7
 32a:	60 fb       	bst	r22, 0
 32c:	67 95       	ror	r22
 32e:	67 f9       	bld	r22, 7
 330:	70 fb       	bst	r23, 0
 332:	77 95       	ror	r23
 334:	77 f9       	bld	r23, 7
 336:	70 fb       	bst	r23, 0
 338:	77 95       	ror	r23
 33a:	77 f9       	bld	r23, 7
 33c:	70 fb       	bst	r23, 0
 33e:	77 95       	ror	r23
 340:	77 f9       	bld	r23, 7
 342:	88 94       	clc
 344:	88 1f       	adc	r24, r24
 346:	81 1d       	adc	r24, r1
 348:	88 94       	clc
 34a:	99 1f       	adc	r25, r25
 34c:	91 1d       	adc	r25, r1
 34e:	99 1f       	adc	r25, r25
 350:	91 1d       	adc	r25, r1
		KEYADD
 352:	01 90       	ld	r0, Z+
 354:	20 25       	eor	r18, r0
 356:	01 90       	ld	r0, Z+
 358:	30 25       	eor	r19, r0
 35a:	01 90       	ld	r0, Z+
 35c:	40 25       	eor	r20, r0
 35e:	01 90       	ld	r0, Z+
 360:	50 25       	eor	r21, r0
 362:	01 90       	ld	r0, Z+
 364:	60 25       	eor	r22, r0
 366:	01 90       	ld	r0, Z+
 368:	70 25       	eor	r23, r0
 36a:	01 90       	ld	r0, Z+
 36c:	80 25       	eor	r24, r0
 36e:	01 90       	ld	r0, Z+
 370:	90 25       	eor	r25, r0
		INC CNT
 372:	13 95       	inc	r17
		CPI CNT, 13
 374:	1d 30       	cpi	r17, 0x0D	; 13
		BRGE LOOP_OUT
 376:	0c f4       	brge	.+2      	; 0x37a <LOOP_OUT>
		RJMP  LOOP
 378:	7d cf       	rjmp	.-262    	; 0x274 <LOOP>

0000037a <LOOP_OUT>:
	LOOP_OUT:

	POP R27
 37a:	bf 91       	pop	r27
	POP R26
 37c:	af 91       	pop	r26

	ST Y+, PT0
 37e:	29 93       	st	Y+, r18
	ST Y+, PT1
 380:	39 93       	st	Y+, r19
	ST Y+, PT2
 382:	49 93       	st	Y+, r20
	ST Y+, PT3
 384:	59 93       	st	Y+, r21
	ST Y+, PT4
 386:	69 93       	st	Y+, r22
	ST Y+, PT5
 388:	79 93       	st	Y+, r23
	ST Y+, PT6
 38a:	89 93       	st	Y+, r24
	ST Y+, PT7
 38c:	99 93       	st	Y+, r25

	POP R29
 38e:	df 91       	pop	r29
	POP R28
 390:	cf 91       	pop	r28
	POP R17
 392:	1f 91       	pop	r17
	POP R16
 394:	0f 91       	pop	r16
	POP R15
 396:	ff 90       	pop	r15

 398:	08 95       	ret

0000039a <pipo128_keygen>:

		INC CNT
	.endm

	pipo128_keygen:
	MOVW R30, R24  //rk, Zpointer
 39a:	fc 01       	movw	r30, r24
	MOVW R26, R22  //mk, Xpointer
 39c:	db 01       	movw	r26, r22
	LDI CNT, 0
 39e:	20 e0       	ldi	r18, 0x00	; 0

000003a0 <LOOP>:

	LOOP:
	MKRK
 3a0:	6d 91       	ld	r22, X+
 3a2:	7d 91       	ld	r23, X+
 3a4:	8d 91       	ld	r24, X+
 3a6:	9d 91       	ld	r25, X+
 3a8:	62 27       	eor	r22, r18
 3aa:	61 93       	st	Z+, r22
 3ac:	71 93       	st	Z+, r23
 3ae:	81 93       	st	Z+, r24
 3b0:	91 93       	st	Z+, r25
 3b2:	6d 91       	ld	r22, X+
 3b4:	7d 91       	ld	r23, X+
 3b6:	8d 91       	ld	r24, X+
 3b8:	9d 91       	ld	r25, X+
 3ba:	61 93       	st	Z+, r22
 3bc:	71 93       	st	Z+, r23
 3be:	81 93       	st	Z+, r24
 3c0:	91 93       	st	Z+, r25
 3c2:	23 95       	inc	r18
	MKRK
 3c4:	6d 91       	ld	r22, X+
 3c6:	7d 91       	ld	r23, X+
 3c8:	8d 91       	ld	r24, X+
 3ca:	9d 91       	ld	r25, X+
 3cc:	62 27       	eor	r22, r18
 3ce:	61 93       	st	Z+, r22
 3d0:	71 93       	st	Z+, r23
 3d2:	81 93       	st	Z+, r24
 3d4:	91 93       	st	Z+, r25
 3d6:	6d 91       	ld	r22, X+
 3d8:	7d 91       	ld	r23, X+
 3da:	8d 91       	ld	r24, X+
 3dc:	9d 91       	ld	r25, X+
 3de:	61 93       	st	Z+, r22
 3e0:	71 93       	st	Z+, r23
 3e2:	81 93       	st	Z+, r24
 3e4:	91 93       	st	Z+, r25
 3e6:	23 95       	inc	r18
	SUBI R26, 16
 3e8:	a0 51       	subi	r26, 0x10	; 16
	CPI CNT, 28
 3ea:	2c 31       	cpi	r18, 0x1C	; 28
	BRGE LOOP_OUT
 3ec:	0c f4       	brge	.+2      	; 0x3f0 <LOOP_OUT>
	RJMP LOOP
 3ee:	d8 cf       	rjmp	.-80     	; 0x3a0 <LOOP>

000003f0 <LOOP_OUT>:

	LOOP_OUT:

	RET
 3f0:	08 95       	ret

000003f2 <pipo256_decrypt>:
		MOV CT1, TM3
	.endm

	pipo256_decrypt:

	PUSH R15
 3f2:	ff 92       	push	r15
	PUSH R16
 3f4:	0f 93       	push	r16
	PUSH R17
 3f6:	1f 93       	push	r17
	PUSH R28
 3f8:	cf 93       	push	r28
	PUSH R29
 3fa:	df 93       	push	r29

	MOVW R28, R24  //pt Ypointer
 3fc:	ec 01       	movw	r28, r24
	MOVW R26, R22 //ct Xpointer
 3fe:	db 01       	movw	r26, r22
	MOVW R30, R20 //rk Zpointer
 400:	fa 01       	movw	r30, r20

	LD CT0, X+
 402:	2d 91       	ld	r18, X+
	LD CT1, X+
 404:	3d 91       	ld	r19, X+
	LD CT2, X+
 406:	4d 91       	ld	r20, X+
	LD CT3, X+
 408:	5d 91       	ld	r21, X+
	LD CT4, X+
 40a:	6d 91       	ld	r22, X+
	LD CT5, X+
 40c:	7d 91       	ld	r23, X+
	LD CT6, X+
 40e:	8d 91       	ld	r24, X+
	LD CT7, X+
 410:	9d 91       	ld	r25, X+

	PUSH R26
 412:	af 93       	push	r26
	PUSH R27
 414:	bf 93       	push	r27
	SUBI R30, -136
 416:	e8 57       	subi	r30, 0x78	; 120
	LDI CNT, 17
 418:	11 e1       	ldi	r17, 0x11	; 17

0000041a <LOOP>:
	LOOP:
		KEYADD
 41a:	01 90       	ld	r0, Z+
 41c:	20 25       	eor	r18, r0
 41e:	01 90       	ld	r0, Z+
 420:	30 25       	eor	r19, r0
 422:	01 90       	ld	r0, Z+
 424:	40 25       	eor	r20, r0
 426:	01 90       	ld	r0, Z+
 428:	50 25       	eor	r21, r0
 42a:	01 90       	ld	r0, Z+
 42c:	60 25       	eor	r22, r0
 42e:	01 90       	ld	r0, Z+
 430:	70 25       	eor	r23, r0
 432:	01 90       	ld	r0, Z+
 434:	80 25       	eor	r24, r0
 436:	01 90       	ld	r0, Z+
 438:	90 25       	eor	r25, r0
		INV_PBox
 43a:	88 94       	clc
 43c:	33 1f       	adc	r19, r19
 43e:	31 1d       	adc	r19, r1
 440:	88 94       	clc
 442:	44 1f       	adc	r20, r20
 444:	41 1d       	adc	r20, r1
 446:	44 1f       	adc	r20, r20
 448:	41 1d       	adc	r20, r1
 44a:	44 1f       	adc	r20, r20
 44c:	41 1d       	adc	r20, r1
 44e:	44 1f       	adc	r20, r20
 450:	41 1d       	adc	r20, r1
 452:	88 94       	clc
 454:	50 fb       	bst	r21, 0
 456:	57 95       	ror	r21
 458:	57 f9       	bld	r21, 7
 45a:	50 fb       	bst	r21, 0
 45c:	57 95       	ror	r21
 45e:	57 f9       	bld	r21, 7
 460:	50 fb       	bst	r21, 0
 462:	57 95       	ror	r21
 464:	57 f9       	bld	r21, 7
 466:	88 94       	clc
 468:	66 1f       	adc	r22, r22
 46a:	61 1d       	adc	r22, r1
 46c:	66 1f       	adc	r22, r22
 46e:	61 1d       	adc	r22, r1
 470:	88 94       	clc
 472:	77 1f       	adc	r23, r23
 474:	71 1d       	adc	r23, r1
 476:	77 1f       	adc	r23, r23
 478:	71 1d       	adc	r23, r1
 47a:	77 1f       	adc	r23, r23
 47c:	71 1d       	adc	r23, r1
 47e:	88 94       	clc
 480:	80 fb       	bst	r24, 0
 482:	87 95       	ror	r24
 484:	87 f9       	bld	r24, 7
 486:	88 94       	clc
 488:	90 fb       	bst	r25, 0
 48a:	97 95       	ror	r25
 48c:	97 f9       	bld	r25, 7
 48e:	90 fb       	bst	r25, 0
 490:	97 95       	ror	r25
 492:	97 f9       	bld	r25, 7
		INV_SBox
 494:	f9 2e       	mov	r15, r25
 496:	92 2f       	mov	r25, r18
 498:	23 2f       	mov	r18, r19
 49a:	3f 2d       	mov	r19, r15
 49c:	f9 2e       	mov	r15, r25
 49e:	08 2f       	mov	r16, r24
 4a0:	a7 2f       	mov	r26, r23
 4a2:	b5 2f       	mov	r27, r21
 4a4:	5a 2b       	or	r21, r26
 4a6:	65 27       	eor	r22, r21
 4a8:	5b 2f       	mov	r21, r27
 4aa:	ba 2f       	mov	r27, r26
 4ac:	a0 2b       	or	r26, r16
 4ae:	5a 27       	eor	r21, r26
 4b0:	ab 2f       	mov	r26, r27
 4b2:	06 27       	eor	r16, r22
 4b4:	f5 26       	eor	r15, r21
 4b6:	b0 2f       	mov	r27, r16
 4b8:	0f 21       	and	r16, r15
 4ba:	a0 27       	eor	r26, r16
 4bc:	0b 2f       	mov	r16, r27
 4be:	b6 2f       	mov	r27, r22
 4c0:	69 23       	and	r22, r25
 4c2:	56 27       	eor	r21, r22
 4c4:	6b 2f       	mov	r22, r27
 4c6:	20 27       	eor	r18, r16
 4c8:	3a 27       	eor	r19, r26
 4ca:	4f 25       	eor	r20, r15
 4cc:	f5 2e       	mov	r15, r21
 4ce:	58 2f       	mov	r21, r24
 4d0:	8f 2d       	mov	r24, r15
 4d2:	f7 2e       	mov	r15, r23
 4d4:	76 2f       	mov	r23, r22
 4d6:	6f 2d       	mov	r22, r15
 4d8:	93 27       	eor	r25, r19
 4da:	54 27       	eor	r21, r20
 4dc:	62 27       	eor	r22, r18
 4de:	b7 2f       	mov	r27, r23
 4e0:	78 23       	and	r23, r24
 4e2:	67 27       	eor	r22, r23
 4e4:	7b 2f       	mov	r23, r27
 4e6:	79 27       	eor	r23, r25
 4e8:	b6 2f       	mov	r27, r22
 4ea:	67 2b       	or	r22, r23
 4ec:	56 27       	eor	r21, r22
 4ee:	6b 2f       	mov	r22, r27
 4f0:	85 27       	eor	r24, r21
 4f2:	96 27       	eor	r25, r22
 4f4:	b5 2f       	mov	r27, r21
 4f6:	57 23       	and	r21, r23
 4f8:	65 27       	eor	r22, r21
 4fa:	5b 2f       	mov	r21, r27
 4fc:	b9 2f       	mov	r27, r25
 4fe:	98 23       	and	r25, r24
 500:	79 27       	eor	r23, r25
 502:	9b 2f       	mov	r25, r27
 504:	40 95       	com	r20
 506:	b4 2f       	mov	r27, r20
 508:	42 2b       	or	r20, r18
 50a:	34 27       	eor	r19, r20
 50c:	4b 2f       	mov	r20, r27
 50e:	b4 2f       	mov	r27, r20
 510:	43 2b       	or	r20, r19
 512:	24 27       	eor	r18, r20
 514:	4b 2f       	mov	r20, r27
 516:	b3 2f       	mov	r27, r19
 518:	32 23       	and	r19, r18
 51a:	43 27       	eor	r20, r19
 51c:	3b 2f       	mov	r19, r27
		DEC CNT
 51e:	1a 95       	dec	r17
		CPI CNT, 0
 520:	10 30       	cpi	r17, 0x00	; 0
		SUBI R30, 16
 522:	e0 51       	subi	r30, 0x10	; 16
		BREQ LOOP_OUT
 524:	09 f0       	breq	.+2      	; 0x528 <LOOP_OUT>
		RJMP LOOP
 526:	79 cf       	rjmp	.-270    	; 0x41a <LOOP>

00000528 <LOOP_OUT>:

	LOOP_OUT:
	KEYADD
 528:	01 90       	ld	r0, Z+
 52a:	20 25       	eor	r18, r0
 52c:	01 90       	ld	r0, Z+
 52e:	30 25       	eor	r19, r0
 530:	01 90       	ld	r0, Z+
 532:	40 25       	eor	r20, r0
 534:	01 90       	ld	r0, Z+
 536:	50 25       	eor	r21, r0
 538:	01 90       	ld	r0, Z+
 53a:	60 25       	eor	r22, r0
 53c:	01 90       	ld	r0, Z+
 53e:	70 25       	eor	r23, r0
 540:	01 90       	ld	r0, Z+
 542:	80 25       	eor	r24, r0
 544:	01 90       	ld	r0, Z+
 546:	90 25       	eor	r25, r0

	POP R27
 548:	bf 91       	pop	r27
	POP R26
 54a:	af 91       	pop	r26

	ST Y+, CT0
 54c:	29 93       	st	Y+, r18
	ST Y+, CT1
 54e:	39 93       	st	Y+, r19
	ST Y+, CT2
 550:	49 93       	st	Y+, r20
	ST Y+, CT3
 552:	59 93       	st	Y+, r21
	ST Y+, CT4
 554:	69 93       	st	Y+, r22
	ST Y+, CT5
 556:	79 93       	st	Y+, r23
	ST Y+, CT6
 558:	89 93       	st	Y+, r24
	ST Y+, CT7
 55a:	99 93       	st	Y+, r25

	POP R29
 55c:	df 91       	pop	r29
	POP R28
 55e:	cf 91       	pop	r28
	POP R17
 560:	1f 91       	pop	r17
	POP R16
 562:	0f 91       	pop	r16
	POP R15
 564:	ff 90       	pop	r15

	RET
 566:	08 95       	ret

00000568 <pipo256_encrypt>:
		MOV PT5, TM2 //X[5] =T[2]
	.endm

	pipo256_encrypt:

	PUSH R15
 568:	ff 92       	push	r15
	PUSH R16
 56a:	0f 93       	push	r16
	PUSH R17
 56c:	1f 93       	push	r17
	PUSH R28
 56e:	cf 93       	push	r28
	PUSH R29
 570:	df 93       	push	r29

	MOVW R28, R24  //ct Ypointer
 572:	ec 01       	movw	r28, r24
	MOVW R26, R22 //pt Xpointer
 574:	db 01       	movw	r26, r22
	MOVW R30, R20 //rk Zpointer
 576:	fa 01       	movw	r30, r20

	LD PT0, X+
 578:	2d 91       	ld	r18, X+
	LD PT1, X+
 57a:	3d 91       	ld	r19, X+
	LD PT2, X+
 57c:	4d 91       	ld	r20, X+
	LD PT3, X+
 57e:	5d 91       	ld	r21, X+
	LD PT4, X+
 580:	6d 91       	ld	r22, X+
	LD PT5, X+
 582:	7d 91       	ld	r23, X+
	LD PT6, X+
 584:	8d 91       	ld	r24, X+
	LD PT7, X+
 586:	9d 91       	ld	r25, X+

	PUSH R26
 588:	af 93       	push	r26
	PUSH R27
 58a:	bf 93       	push	r27

	LDI CNT, 0
 58c:	10 e0       	ldi	r17, 0x00	; 0
	KEYADD
 58e:	01 90       	ld	r0, Z+
 590:	20 25       	eor	r18, r0
 592:	01 90       	ld	r0, Z+
 594:	30 25       	eor	r19, r0
 596:	01 90       	ld	r0, Z+
 598:	40 25       	eor	r20, r0
 59a:	01 90       	ld	r0, Z+
 59c:	50 25       	eor	r21, r0
 59e:	01 90       	ld	r0, Z+
 5a0:	60 25       	eor	r22, r0
 5a2:	01 90       	ld	r0, Z+
 5a4:	70 25       	eor	r23, r0
 5a6:	01 90       	ld	r0, Z+
 5a8:	80 25       	eor	r24, r0
 5aa:	01 90       	ld	r0, Z+
 5ac:	90 25       	eor	r25, r0

000005ae <LOOP>:

	LOOP:
		Sbox
 5ae:	f9 2e       	mov	r15, r25
 5b0:	98 23       	and	r25, r24
 5b2:	79 27       	eor	r23, r25
 5b4:	9f 2d       	mov	r25, r15
 5b6:	f5 2e       	mov	r15, r21
 5b8:	57 23       	and	r21, r23
 5ba:	65 27       	eor	r22, r21
 5bc:	5f 2d       	mov	r21, r15
 5be:	96 27       	eor	r25, r22
 5c0:	85 27       	eor	r24, r21
 5c2:	f6 2e       	mov	r15, r22
 5c4:	67 2b       	or	r22, r23
 5c6:	56 27       	eor	r21, r22
 5c8:	6f 2d       	mov	r22, r15
 5ca:	79 27       	eor	r23, r25
 5cc:	f7 2e       	mov	r15, r23
 5ce:	78 23       	and	r23, r24
 5d0:	67 27       	eor	r22, r23
 5d2:	7f 2d       	mov	r23, r15
 5d4:	f3 2e       	mov	r15, r19
 5d6:	32 23       	and	r19, r18
 5d8:	43 27       	eor	r20, r19
 5da:	3f 2d       	mov	r19, r15
 5dc:	f4 2e       	mov	r15, r20
 5de:	43 2b       	or	r20, r19
 5e0:	24 27       	eor	r18, r20
 5e2:	4f 2d       	mov	r20, r15
 5e4:	f4 2e       	mov	r15, r20
 5e6:	42 2b       	or	r20, r18
 5e8:	34 27       	eor	r19, r20
 5ea:	4f 2d       	mov	r20, r15
 5ec:	40 95       	com	r20
 5ee:	93 27       	eor	r25, r19
 5f0:	54 27       	eor	r21, r20
 5f2:	62 27       	eor	r22, r18
 5f4:	f9 2e       	mov	r15, r25
 5f6:	05 2f       	mov	r16, r21
 5f8:	a6 2f       	mov	r26, r22
 5fa:	bf 2d       	mov	r27, r15
 5fc:	f7 22       	and	r15, r23
 5fe:	8f 25       	eor	r24, r15
 600:	fb 2e       	mov	r15, r27
 602:	f8 26       	eor	r15, r24
 604:	ba 2f       	mov	r27, r26
 606:	a0 2b       	or	r26, r16
 608:	8a 27       	eor	r24, r26
 60a:	ab 2f       	mov	r26, r27
 60c:	07 27       	eor	r16, r23
 60e:	b8 2f       	mov	r27, r24
 610:	8a 2b       	or	r24, r26
 612:	78 27       	eor	r23, r24
 614:	8b 2f       	mov	r24, r27
 616:	b0 2f       	mov	r27, r16
 618:	0f 21       	and	r16, r15
 61a:	a0 27       	eor	r26, r16
 61c:	0b 2f       	mov	r16, r27
 61e:	4f 25       	eor	r20, r15
 620:	3a 27       	eor	r19, r26
 622:	f3 2e       	mov	r15, r19
 624:	20 27       	eor	r18, r16
 626:	32 2f       	mov	r19, r18
 628:	29 2f       	mov	r18, r25
 62a:	9f 2d       	mov	r25, r15
 62c:	05 2f       	mov	r16, r21
 62e:	58 2f       	mov	r21, r24
 630:	80 2f       	mov	r24, r16
 632:	a6 2f       	mov	r26, r22
 634:	67 2f       	mov	r22, r23
 636:	7a 2f       	mov	r23, r26
		Pbox
 638:	30 fb       	bst	r19, 0
 63a:	37 95       	ror	r19
 63c:	37 f9       	bld	r19, 7
 63e:	88 94       	clc
 640:	44 1f       	adc	r20, r20
 642:	41 1d       	adc	r20, r1
 644:	44 1f       	adc	r20, r20
 646:	41 1d       	adc	r20, r1
 648:	44 1f       	adc	r20, r20
 64a:	41 1d       	adc	r20, r1
 64c:	44 1f       	adc	r20, r20
 64e:	41 1d       	adc	r20, r1
 650:	88 94       	clc
 652:	55 1f       	adc	r21, r21
 654:	51 1d       	adc	r21, r1
 656:	55 1f       	adc	r21, r21
 658:	51 1d       	adc	r21, r1
 65a:	55 1f       	adc	r21, r21
 65c:	51 1d       	adc	r21, r1
 65e:	60 fb       	bst	r22, 0
 660:	67 95       	ror	r22
 662:	67 f9       	bld	r22, 7
 664:	60 fb       	bst	r22, 0
 666:	67 95       	ror	r22
 668:	67 f9       	bld	r22, 7
 66a:	70 fb       	bst	r23, 0
 66c:	77 95       	ror	r23
 66e:	77 f9       	bld	r23, 7
 670:	70 fb       	bst	r23, 0
 672:	77 95       	ror	r23
 674:	77 f9       	bld	r23, 7
 676:	70 fb       	bst	r23, 0
 678:	77 95       	ror	r23
 67a:	77 f9       	bld	r23, 7
 67c:	88 94       	clc
 67e:	88 1f       	adc	r24, r24
 680:	81 1d       	adc	r24, r1
 682:	88 94       	clc
 684:	99 1f       	adc	r25, r25
 686:	91 1d       	adc	r25, r1
 688:	99 1f       	adc	r25, r25
 68a:	91 1d       	adc	r25, r1
		KEYADD
 68c:	01 90       	ld	r0, Z+
 68e:	20 25       	eor	r18, r0
 690:	01 90       	ld	r0, Z+
 692:	30 25       	eor	r19, r0
 694:	01 90       	ld	r0, Z+
 696:	40 25       	eor	r20, r0
 698:	01 90       	ld	r0, Z+
 69a:	50 25       	eor	r21, r0
 69c:	01 90       	ld	r0, Z+
 69e:	60 25       	eor	r22, r0
 6a0:	01 90       	ld	r0, Z+
 6a2:	70 25       	eor	r23, r0
 6a4:	01 90       	ld	r0, Z+
 6a6:	80 25       	eor	r24, r0
 6a8:	01 90       	ld	r0, Z+
 6aa:	90 25       	eor	r25, r0
		INC CNT
 6ac:	13 95       	inc	r17
		CPI CNT, 17
 6ae:	11 31       	cpi	r17, 0x11	; 17
		BRGE LOOP_OUT
 6b0:	0c f4       	brge	.+2      	; 0x6b4 <LOOP_OUT>
		RJMP  LOOP
 6b2:	7d cf       	rjmp	.-262    	; 0x5ae <LOOP>

000006b4 <LOOP_OUT>:
	LOOP_OUT:

	POP R27
 6b4:	bf 91       	pop	r27
	POP R26
 6b6:	af 91       	pop	r26

	ST Y+, PT0
 6b8:	29 93       	st	Y+, r18
	ST Y+, PT1
 6ba:	39 93       	st	Y+, r19
	ST Y+, PT2
 6bc:	49 93       	st	Y+, r20
	ST Y+, PT3
 6be:	59 93       	st	Y+, r21
	ST Y+, PT4
 6c0:	69 93       	st	Y+, r22
	ST Y+, PT5
 6c2:	79 93       	st	Y+, r23
	ST Y+, PT6
 6c4:	89 93       	st	Y+, r24
	ST Y+, PT7
 6c6:	99 93       	st	Y+, r25

	POP R29
 6c8:	df 91       	pop	r29
	POP R28
 6ca:	cf 91       	pop	r28
	POP R17
 6cc:	1f 91       	pop	r17
	POP R16
 6ce:	0f 91       	pop	r16
	POP R15
 6d0:	ff 90       	pop	r15

 6d2:	08 95       	ret

000006d4 <pipo256_keygen>:
	.endm


	pipo256_keygen:

	MOVW R30, R24  //rk, Zpointer
 6d4:	fc 01       	movw	r30, r24
	MOVW R26, R22  //mk, Xpointer
 6d6:	db 01       	movw	r26, r22
	LDI CNT, 0
 6d8:	20 e0       	ldi	r18, 0x00	; 0

000006da <LOOP>:

	LOOP:
	MKRK
 6da:	6d 91       	ld	r22, X+
 6dc:	7d 91       	ld	r23, X+
 6de:	8d 91       	ld	r24, X+
 6e0:	9d 91       	ld	r25, X+
 6e2:	62 27       	eor	r22, r18
 6e4:	61 93       	st	Z+, r22
 6e6:	71 93       	st	Z+, r23
 6e8:	81 93       	st	Z+, r24
 6ea:	91 93       	st	Z+, r25
 6ec:	6d 91       	ld	r22, X+
 6ee:	7d 91       	ld	r23, X+
 6f0:	8d 91       	ld	r24, X+
 6f2:	9d 91       	ld	r25, X+
 6f4:	61 93       	st	Z+, r22
 6f6:	71 93       	st	Z+, r23
 6f8:	81 93       	st	Z+, r24
 6fa:	91 93       	st	Z+, r25
 6fc:	23 95       	inc	r18
	MKRK
 6fe:	6d 91       	ld	r22, X+
 700:	7d 91       	ld	r23, X+
 702:	8d 91       	ld	r24, X+
 704:	9d 91       	ld	r25, X+
 706:	62 27       	eor	r22, r18
 708:	61 93       	st	Z+, r22
 70a:	71 93       	st	Z+, r23
 70c:	81 93       	st	Z+, r24
 70e:	91 93       	st	Z+, r25
 710:	6d 91       	ld	r22, X+
 712:	7d 91       	ld	r23, X+
 714:	8d 91       	ld	r24, X+
 716:	9d 91       	ld	r25, X+
 718:	61 93       	st	Z+, r22
 71a:	71 93       	st	Z+, r23
 71c:	81 93       	st	Z+, r24
 71e:	91 93       	st	Z+, r25
 720:	23 95       	inc	r18
	MKRK
 722:	6d 91       	ld	r22, X+
 724:	7d 91       	ld	r23, X+
 726:	8d 91       	ld	r24, X+
 728:	9d 91       	ld	r25, X+
 72a:	62 27       	eor	r22, r18
 72c:	61 93       	st	Z+, r22
 72e:	71 93       	st	Z+, r23
 730:	81 93       	st	Z+, r24
 732:	91 93       	st	Z+, r25
 734:	6d 91       	ld	r22, X+
 736:	7d 91       	ld	r23, X+
 738:	8d 91       	ld	r24, X+
 73a:	9d 91       	ld	r25, X+
 73c:	61 93       	st	Z+, r22
 73e:	71 93       	st	Z+, r23
 740:	81 93       	st	Z+, r24
 742:	91 93       	st	Z+, r25
 744:	23 95       	inc	r18
	MKRK
 746:	6d 91       	ld	r22, X+
 748:	7d 91       	ld	r23, X+
 74a:	8d 91       	ld	r24, X+
 74c:	9d 91       	ld	r25, X+
 74e:	62 27       	eor	r22, r18
 750:	61 93       	st	Z+, r22
 752:	71 93       	st	Z+, r23
 754:	81 93       	st	Z+, r24
 756:	91 93       	st	Z+, r25
 758:	6d 91       	ld	r22, X+
 75a:	7d 91       	ld	r23, X+
 75c:	8d 91       	ld	r24, X+
 75e:	9d 91       	ld	r25, X+
 760:	61 93       	st	Z+, r22
 762:	71 93       	st	Z+, r23
 764:	81 93       	st	Z+, r24
 766:	91 93       	st	Z+, r25
 768:	23 95       	inc	r18
	SUBI R26, 32
 76a:	a0 52       	subi	r26, 0x20	; 32
	CPI CNT, 34
 76c:	22 32       	cpi	r18, 0x22	; 34
	BRGE LOOP_OUT
 76e:	0c f4       	brge	.+2      	; 0x772 <LOOP_OUT>
	RJMP LOOP
 770:	b4 cf       	rjmp	.-152    	; 0x6da <LOOP>

00000772 <LOOP_OUT>:

	LOOP_OUT:
 772:	08 95       	ret

00000774 <test_pipo128>:
#include <avr/io.h>

uint8_t rks[] __attribute__ ((section(".RKSection")))  ={0};
	
void test_pipo128()
{
 774:	ef 92       	push	r14
 776:	ff 92       	push	r15
 778:	0f 93       	push	r16
 77a:	1f 93       	push	r17
 77c:	cf 93       	push	r28
 77e:	df 93       	push	r29
 780:	cd b7       	in	r28, 0x3d	; 61
 782:	de b7       	in	r29, 0x3e	; 62
 784:	a1 97       	sbiw	r28, 0x21	; 33
 786:	0f b6       	in	r0, 0x3f	; 63
 788:	f8 94       	cli
 78a:	de bf       	out	0x3e, r29	; 62
 78c:	0f be       	out	0x3f, r0	; 63
 78e:	cd bf       	out	0x3d, r28	; 61
	//mk: 0x2E152297, 0x7E1D20AD, 0x779429d2, 0x6dc416dd
	//pt 0x1E270026, 0x098552f6
	//ct: 0xAD5D0327, 0x6B6B2981
	uint8_t mk[] ={ 0x97, 0x22, 0x15, 0x2E, 0xAD, 0x20, 0x1D, 0x7E, 0xD2, 0x28, 0x94, 0x77, 0xDD, 0x16, 0xC4, 0x6D, };
 790:	80 e1       	ldi	r24, 0x10	; 16
 792:	e0 e0       	ldi	r30, 0x00	; 0
 794:	f1 e0       	ldi	r31, 0x01	; 1
 796:	de 01       	movw	r26, r28
 798:	11 96       	adiw	r26, 0x01	; 1
 79a:	01 90       	ld	r0, Z+
 79c:	0d 92       	st	X+, r0
 79e:	8a 95       	dec	r24
 7a0:	e1 f7       	brne	.-8      	; 0x79a <test_pipo128+0x26>
	
	uint8_t pt[9] ={ 0x26, 0x00, 0x27, 0x1E, 0xf6, 0x52, 0x85, 0x09,};
 7a2:	89 e0       	ldi	r24, 0x09	; 9
 7a4:	8e 01       	movw	r16, r28
 7a6:	0f 5e       	subi	r16, 0xEF	; 239
 7a8:	1f 4f       	sbci	r17, 0xFF	; 255
 7aa:	f8 01       	movw	r30, r16
 7ac:	98 2f       	mov	r25, r24
 7ae:	11 92       	st	Z+, r1
 7b0:	9a 95       	dec	r25
 7b2:	e9 f7       	brne	.-6      	; 0x7ae <test_pipo128+0x3a>
 7b4:	96 e2       	ldi	r25, 0x26	; 38
 7b6:	99 8b       	std	Y+17, r25	; 0x11
 7b8:	97 e2       	ldi	r25, 0x27	; 39
 7ba:	9b 8b       	std	Y+19, r25	; 0x13
 7bc:	9e e1       	ldi	r25, 0x1E	; 30
 7be:	9c 8b       	std	Y+20, r25	; 0x14
 7c0:	96 ef       	ldi	r25, 0xF6	; 246
 7c2:	9d 8b       	std	Y+21, r25	; 0x15
 7c4:	92 e5       	ldi	r25, 0x52	; 82
 7c6:	9e 8b       	std	Y+22, r25	; 0x16
 7c8:	95 e8       	ldi	r25, 0x85	; 133
 7ca:	9f 8b       	std	Y+23, r25	; 0x17
 7cc:	88 8f       	std	Y+24, r24	; 0x18
	
	uint8_t ct[8] ={0};//;{ 0x27, 0x03, 0x5D, 0xAD, 0x81, 0x29, 0x6B, 0x6B,};
 7ce:	7e 01       	movw	r14, r28
 7d0:	ea e1       	ldi	r30, 0x1A	; 26
 7d2:	ee 0e       	add	r14, r30
 7d4:	f1 1c       	adc	r15, r1
 7d6:	88 e0       	ldi	r24, 0x08	; 8
 7d8:	f7 01       	movw	r30, r14
 7da:	11 92       	st	Z+, r1
 7dc:	8a 95       	dec	r24
 7de:	e9 f7       	brne	.-6      	; 0x7da <test_pipo128+0x66>
	pipo128_keygen(rks,mk);// key schedule
 7e0:	be 01       	movw	r22, r28
 7e2:	6f 5f       	subi	r22, 0xFF	; 255
 7e4:	7f 4f       	sbci	r23, 0xFF	; 255
 7e6:	80 e4       	ldi	r24, 0x40	; 64
 7e8:	91 e0       	ldi	r25, 0x01	; 1
 7ea:	d7 dd       	rcall	.-1106   	; 0x39a <pipo128_keygen>
	pipo128_encrypt(ct,pt,rks);// 1-block encrypt/decrypt
 7ec:	40 e4       	ldi	r20, 0x40	; 64
 7ee:	51 e0       	ldi	r21, 0x01	; 1
 7f0:	b8 01       	movw	r22, r16
 7f2:	c7 01       	movw	r24, r14
 7f4:	1c dd       	rcall	.-1480   	; 0x22e <pipo128_encrypt>
	pipo128_decrypt(pt,ct,rks);
 7f6:	40 e4       	ldi	r20, 0x40	; 64
 7f8:	51 e0       	ldi	r21, 0x01	; 1
 7fa:	b7 01       	movw	r22, r14
 7fc:	c8 01       	movw	r24, r16
 7fe:	5c dc       	rcall	.-1864   	; 0xb8 <pipo128_decrypt>
	// CTR encrypt/decrypt
}
 800:	a1 96       	adiw	r28, 0x21	; 33
 802:	0f b6       	in	r0, 0x3f	; 63
 804:	f8 94       	cli
 806:	de bf       	out	0x3e, r29	; 62
 808:	0f be       	out	0x3f, r0	; 63
 80a:	cd bf       	out	0x3d, r28	; 61
 80c:	df 91       	pop	r29
 80e:	cf 91       	pop	r28
 810:	1f 91       	pop	r17
 812:	0f 91       	pop	r16
 814:	ff 90       	pop	r15
 816:	ef 90       	pop	r14
 818:	08 95       	ret

0000081a <test_pipo256>:

void test_pipo256()
{
 81a:	cf 93       	push	r28
 81c:	df 93       	push	r29
 81e:	cd b7       	in	r28, 0x3d	; 61
 820:	de b7       	in	r29, 0x3e	; 62
 822:	e0 97       	sbiw	r28, 0x30	; 48
 824:	0f b6       	in	r0, 0x3f	; 63
 826:	f8 94       	cli
 828:	de bf       	out	0x3e, r29	; 62
 82a:	0f be       	out	0x3f, r0	; 63
 82c:	cd bf       	out	0x3d, r28	; 61
	//mk: 0x2E152297, 0x7E1D20AD, 0x779429d2, 0x6dc416dd,
	//    0x26D15633, 0x54A71206, 0x76A96DB5, 0x009A3AA4
	//pt: 0x1E270026, 0x098552f6
	//ct: 0xB6523889, 0x816DAE6F
	uint8_t mk[] ={ 0x97, 0x22, 0x15, 0x2E, 0xAD, 0x20, 0x1D, 0x7E, 0xD2, 0x28, 0x94, 0x77, 0xDD, 0x16, 0xC4, 0x6D, 
 82e:	80 e2       	ldi	r24, 0x20	; 32
 830:	e0 e1       	ldi	r30, 0x10	; 16
 832:	f1 e0       	ldi	r31, 0x01	; 1
 834:	de 01       	movw	r26, r28
 836:	11 96       	adiw	r26, 0x01	; 1
 838:	01 90       	ld	r0, Z+
 83a:	0d 92       	st	X+, r0
 83c:	8a 95       	dec	r24
 83e:	e1 f7       	brne	.-8      	; 0x838 <test_pipo256+0x1e>
		            0x33, 0x56, 0xD1, 0x26, 0x06, 0x12, 0xA7, 0x54, 0xB5, 0x6D, 0xA9, 0x76, 0xA4, 0x3A, 0x9A, 0x00, };
	uint8_t pt[] ={ 0x26, 0x00, 0x27, 0x1E, 0xf6, 0x52, 0x85, 0x09,};
 840:	88 e0       	ldi	r24, 0x08	; 8
 842:	e0 e3       	ldi	r30, 0x30	; 48
 844:	f1 e0       	ldi	r31, 0x01	; 1
 846:	de 01       	movw	r26, r28
 848:	99 96       	adiw	r26, 0x29	; 41
 84a:	01 90       	ld	r0, Z+
 84c:	0d 92       	st	X+, r0
 84e:	8a 95       	dec	r24
 850:	e1 f7       	brne	.-8      	; 0x84a <test_pipo256+0x30>
	uint8_t ct[] ={ 0x89, 0x38, 0x52, 0xB6, 0x6F, 0xAE, 0X6D, 0x81,};
 852:	88 e0       	ldi	r24, 0x08	; 8
 854:	e8 e3       	ldi	r30, 0x38	; 56
 856:	f1 e0       	ldi	r31, 0x01	; 1
 858:	de 01       	movw	r26, r28
 85a:	91 96       	adiw	r26, 0x21	; 33
 85c:	01 90       	ld	r0, Z+
 85e:	0d 92       	st	X+, r0
 860:	8a 95       	dec	r24
 862:	e1 f7       	brne	.-8      	; 0x85c <test_pipo256+0x42>
	
	
	pipo256_keygen(rks,mk);// key schedule
 864:	be 01       	movw	r22, r28
 866:	6f 5f       	subi	r22, 0xFF	; 255
 868:	7f 4f       	sbci	r23, 0xFF	; 255
 86a:	80 e4       	ldi	r24, 0x40	; 64
 86c:	91 e0       	ldi	r25, 0x01	; 1
 86e:	32 df       	rcall	.-412    	; 0x6d4 <pipo256_keygen>
	pipo256_encrypt(ct,pt,rks);// 1-block encrypt/decrypt
 870:	40 e4       	ldi	r20, 0x40	; 64
 872:	51 e0       	ldi	r21, 0x01	; 1
 874:	be 01       	movw	r22, r28
 876:	67 5d       	subi	r22, 0xD7	; 215
 878:	7f 4f       	sbci	r23, 0xFF	; 255
 87a:	ce 01       	movw	r24, r28
 87c:	81 96       	adiw	r24, 0x21	; 33
 87e:	74 de       	rcall	.-792    	; 0x568 <pipo256_encrypt>
	pipo256_decrypt(pt,ct,rks);
 880:	40 e4       	ldi	r20, 0x40	; 64
 882:	51 e0       	ldi	r21, 0x01	; 1
 884:	be 01       	movw	r22, r28
 886:	6f 5d       	subi	r22, 0xDF	; 223
 888:	7f 4f       	sbci	r23, 0xFF	; 255
 88a:	ce 01       	movw	r24, r28
 88c:	89 96       	adiw	r24, 0x29	; 41
 88e:	b1 dd       	rcall	.-1182   	; 0x3f2 <pipo256_decrypt>
}
 890:	e0 96       	adiw	r28, 0x30	; 48
 892:	0f b6       	in	r0, 0x3f	; 63
 894:	f8 94       	cli
 896:	de bf       	out	0x3e, r29	; 62
 898:	0f be       	out	0x3f, r0	; 63
 89a:	cd bf       	out	0x3d, r28	; 61
 89c:	df 91       	pop	r29
 89e:	cf 91       	pop	r28
 8a0:	08 95       	ret

000008a2 <main>:

int main(void)
{
	// variables...
	test_pipo128();
 8a2:	68 df       	rcall	.-304    	; 0x774 <test_pipo128>
	test_pipo256();
 8a4:	ba df       	rcall	.-140    	; 0x81a <test_pipo256>
 8a6:	80 e0       	ldi	r24, 0x00	; 0
	
}
 8a8:	90 e0       	ldi	r25, 0x00	; 0
 8aa:	08 95       	ret

000008ac <_exit>:
 8ac:	f8 94       	cli

000008ae <__stop_program>:
 8ae:	ff cf       	rjmp	.-2      	; 0x8ae <__stop_program>
